; Function Attrs: nounwind uwtable
define internal ptr @getargs_s_hash(ptr readnone captures(none) %0, ptr noundef %1) #0 {
  %3 = alloca ptr, align 8
  %4 = alloca i64, align 8
  call void @llvm.lifetime.start.p0(i64 8, ptr nonnull %3) #7
  call void @llvm.lifetime.start.p0(i64 8, ptr nonnull %4) #7
  %5 = call i32 (ptr, ptr, ...) @PyArg_ParseTuple(ptr noundef %1, ptr noundef nonnull @.str.92, ptr noundef nonnull %3, ptr noundef nonnull %4) #7
  %.not = icmp eq i32 %5, 0
  br i1 %.not, label %10, label %6

6:                                                ; preds = %2
  %7 = load ptr, ptr %3, align 8, !tbaa !17
  %8 = load i64, ptr %4, align 8, !tbaa !28
  %9 = call ptr @PyBytes_FromStringAndSize(ptr noundef %7, i64 noundef %8) #7
  br label %10

10:                                               ; preds = %2, %6
  %.0 = phi ptr [ %9, %6 ], [ null, %2 ]
  call void @llvm.lifetime.end.p0(i64 8, ptr nonnull %4) #7
  call void @llvm.lifetime.end.p0(i64 8, ptr nonnull %3) #7
  ret ptr %.0
}